; Function Attrs: mustprogress nofree norecurse nosync nounwind sspstrong willreturn memory(read, inaccessiblemem: none) uwtable
define dso_local range(i64 0, 21) i64 @rb_obj_frozen_p(i64 noundef %0) local_unnamed_addr #5 {
  %2 = icmp eq i64 %0, 0
  %3 = and i64 %0, 7
  %4 = icmp ne i64 %3, 0
  %5 = or i1 %2, %4
  br i1 %5, label %RB_OBJ_FROZEN.exit.thread, label %RB_FL_ABLE.exit.i

RB_FL_ABLE.exit.i:                                ; preds = %1
  %6 = inttoptr i64 %0 to ptr
  %7 = load i64, ptr %6, align 8, !tbaa !24
  %.fr3 = freeze i64 %7
  %8 = and i64 %.fr3, 31
  %.not.i = icmp ne i64 %8, 27
  %9 = and i64 %.fr3, 2048
  %.not = icmp eq i64 %9, 0
  %or.cond = and i1 %.not.i, %.not
  br i1 %or.cond, label %10, label %RB_OBJ_FROZEN.exit.thread

RB_OBJ_FROZEN.exit.thread:                        ; preds = %1, %RB_FL_ABLE.exit.i
  br label %10

10:                                               ; preds = %RB_FL_ABLE.exit.i, %RB_OBJ_FROZEN.exit.thread
  %11 = phi i64 [ 20, %RB_OBJ_FROZEN.exit.thread ], [ 0, %RB_FL_ABLE.exit.i ]
  ret i64 %11
}